; Function Attrs: nounwind sspstrong uwtable
define dso_local void @v9fs_uint16_write(ptr noundef captures(none) %0, i16 noundef zeroext %1) local_unnamed_addr #1 {
  %3 = alloca i16, align 2
  call void @llvm.lifetime.start.p0(i64 2, ptr nonnull %3) #14
  store i16 %1, ptr %3, align 2
  %4 = load ptr, ptr %0, align 8
  %5 = getelementptr inbounds nuw i8, ptr %0, i64 24
  %6 = load i64, ptr %5, align 8
  %7 = getelementptr inbounds nuw i8, ptr %0, i64 48
  %8 = load i64, ptr %7, align 8
  %9 = add i64 %8, %6
  call void @qtest_memwrite(ptr noundef %4, i64 noundef %9, ptr noundef nonnull %3, i64 noundef 2) #14
  %10 = load i64, ptr %7, align 8
  %11 = add i64 %10, 2
  store i64 %11, ptr %7, align 8
  call void @llvm.lifetime.end.p0(i64 2, ptr nonnull %3) #14
  ret void
}